(dp0
S'CVE-2018-20511'
p1
(dp2
S'f332617ebb03'
p3
(dp4
(S'drivers/net/appletalk/ipddp.c'
p5
S'ipddp_ioctl'
p6
tp7
S'ad6d811a2827'
p8
sssS'CVE-2018-12011'
p9
(dp10
S'9e72d10cef9b'
p11
(dp12
(S'net/ipc_router/ipc_router_socket.c'
p13
S'msm_ipc_router_extract_msg'
p14
tp15
S'7b51fca84f38'
p16
sssS'CVE-2018-20961'
p17
(dp18
S'e7da47f2cfe8'
p19
(dp20
(S'drivers/usb/gadget/function/f_midi.c'
p21
S'f_midi_set_alt'
p22
tp23
S'230f5ef8edc6'
p24
s(S'drivers/usb/gadget/u_f.h'
p25
S'free_ep_req'
p26
tp27
g24
sssS'CVE-2018-19985'
p28
(dp29
S'de6abb23dc05'
p30
(dp31
(S'drivers/net/usb/hso.c'
p32
S'hso_probe'
p33
tp34
S'2dc9dcdbb971'
p35
s(g32
S'hso_get_config_data'
p36
tp37
g35
sssS'CVE-2018-5803'
p38
(dp39
S'78667dedc643'
p40
(dp41
(S'net/sctp/sm_make_chunk.c'
p42
S'_sctp_make_chunk'
p43
tp44
S'c287f849c93a'
p45
sssS'CVE-2018-13913'
p46
(dp47
S'0a6ff72374f8'
p48
(dp49
(S'drivers/video/fbdev/msm/mdss_debug.c'
p50
S'mdss_debug_base_is_valid_range'
p51
tp52
S'a08adf4080f4'
p53
s(g50
S'mdss_debug_base_offset_write'
p54
tp55
g53
sssS'CVE-2018-13912'
p56
(dp57
S'd634f74a5dc2'
p58
(dp59
(S'drivers/media/platform/msm/camera_v2/msm_buf_mgr/msm_generic_buf_mgr.c'
p60
S'msm_buf_mngr_subdev_ioctl'
p61
tp62
S'b2550ae3f313'
p63
sssS'CVE-2019-15239'
p64
(dp65
S'98ae89537923'
p66
(dp67
(S'net/ipv4/tcp_output.c'
p68
S'__tcp_retransmit_skb'
p69
tp70
S'1770a10903e9'
p71
s(g68
S'tcp_connect_init'
p72
tp73
g71
sssS'CVE-2018-3574'
p74
(dp75
S'f332617ebb03'
p76
(dp77
(S'drivers/staging/android/ion/msm/msm_ion.c'
p78
S'ion_do_cache_op'
p79
tp80
S'd5d55ba074e6'
p81
s(g78
S'msm_ion_custom_ioctl'
p82
tp83
g81
ssS'd9534cd84408'
p84
(dp85
(S'drivers/staging/android/ion/ion.c'
p86
S'ion_sync_for_device'
p87
tp88
g81
s(g78
S'MAKE_HEAP_TYPE_MAPPING'
p89
tp90
g81
sg83
g81
sg80
g81
ssS'058ddcee4c12'
p91
(dp92
g83
g81
ssS'19a8101c2309'
p93
(dp94
g83
g81
ssS'ac5f536e7f5e'
p95
(dp96
g83
g81
sssS'CVE-2019-10528'
p97
(dp98
S'38a1d53987e4'
p99
(dp100
(S'drivers/char/diag/diag_masks.c'
p101
S'diag_cmd_get_msg_mask'
p102
tp103
S'56c91ae1aa57'
p104
s(g101
S'diag_cmd_get_build_mask'
p105
tp106
g104
s(g101
S'diag_cmd_set_msg_mask'
p107
tp108
g104
ssS'a93976ff1455'
p109
(dp110
(S'drivers/char/diag/diagchar_core.c'
p111
S'diag_close_logging_process'
p112
tp113
g104
ssS'57d3486c6e7a'
p114
(dp115
g108
g104
s(g111
S'diag_md_session_close'
p116
tp117
g104
sg103
g104
s(g101
S'diag_cmd_get_ssid_range'
p118
tp119
g104
s(g101
S'diag_cmd_set_all_msg_mask'
p120
tp121
g104
ssS'5bed7228b299'
p122
(dp123
(S'drivers/char/diag/diagfwd_peripheral.c'
p124
S'diagfwd_data_process_done'
p125
tp126
g104
s(S'drivers/char/diag/diag_memorydevice.c'
p127
S'diag_md_write'
p128
tp129
g104
s(g124
S'diagfwd_data_read_done'
p130
tp131
g104
ssS'c36d54c34fef'
p132
(dp133
g113
g104
s(g111
S'diag_md_session_check'
p134
tp135
g104
ssS'9393739f2aa4'
p136
(dp137
(S'drivers/char/diag/diagfwd.c'
p138
S'diag_process_apps_pkt'
p139
tp140
g104
sg103
g104
sg106
g104
ssS'8ac6e23e1acb'
p141
(dp142
(g101
S'diag_cmd_get_log_mask'
p143
tp144
g104
ssS'd1d4ca7a8303'
p145
(dp146
g129
g104
ssS'7dca8885b04d'
p147
(dp148
g108
g104
ssS'6c6aaf4e8330'
p149
(dp150
(g111
S'diagchar_read'
p151
tp152
g104
ssS'2851bf7e6847'
p153
(dp154
g135
g104
ssS'a5bdc9ebe5cf'
p155
(dp156
g113
g104
s(g111
S'diag_md_peripheral_switch'
p157
tp158
g104
sg135
g104
s(g111
S'diag_user_process_apps_data'
p159
tp160
g104
ssS'c9ebd8b20d52'
p161
(dp162
(g101
S'diag_cmd_set_log_mask'
p163
tp164
g104
s(g101
S'diag_cmd_disable_log_mask'
p165
tp166
g104
sg121
g104
ssS'4ab88a87a831'
p167
(dp168
g131
g104
s(g138
S'diag_send_error_rsp'
p169
tp170
g104
sg106
g104
sg152
g104
s(g101
S'diag_cmd_toggle_events'
p171
tp172
g104
s(S'drivers/char/diag/diag_usb.c'
p173
S'usb_disconnect'
p174
tp175
g104
s(g138
S'diag_process_non_hdlc_pkt'
p176
tp177
g104
s(g138
S'pack_rsp_and_send'
p178
tp179
g104
s(g138
S'encode_rsp_and_send'
p180
tp181
g104
sg113
g104
s(g138
S'diag_hdlc_start_recovery'
p182
tp183
g104
s(g138
S'diag_send_rsp'
p184
tp185
g104
s(g111
S'diag_ioctl_hdlc_toggle'
p186
tp187
g104
s(g138
S'diagfwd_mux_read_done'
p188
tp189
g104
sg103
g104
sg126
g104
s(g101
S'diag_cmd_get_log_range'
p190
tp191
g104
s(g101
S'diag_cmd_update_event_mask'
p192
tp193
g104
sg129
g104
s(g111
S'diag_user_process_raw_data'
p194
tp195
g104
s(g101
S'diag_process_apps_masks'
p196
tp197
g104
s(g138
S'diag_update_md_clients'
p198
tp199
g104
s(g138
S'diag_process_hdlc_pkt'
p200
tp201
g104
s(g111
S'diag_user_process_userspace_data'
p202
tp203
g104
s(g138
S'hdlc_reset_timer_start'
p204
tp205
g104
sg158
g104
sg117
g104
sg108
g104
sg144
g104
sg164
g104
sg119
g104
s(g111
S'diag_clear_masks'
p206
tp207
g104
sg135
g104
sg140
g104
s(g111
S'diag_drain_work_fn'
p208
tp209
g104
s(g101
S'diag_cmd_get_event_mask'
p210
tp211
g104
sg121
g104
s(g111
S'diag_send_raw_data_remote'
p212
tp213
g104
sg160
g104
sg166
g104
s(g111
S'diag_md_session_get_pid'
p214
tp215
g104
ssS'd441912ad6fd'
p216
(dp217
g172
g104
sg164
g104
sg193
g104
sg121
g104
sg166
g104
sg108
g104
ssS'23405c80e9d7'
p218
(dp219
g197
g104
ssS'a77c16d4981b'
p220
(dp221
g103
g104
sg195
g104
sg172
g104
sg121
g104
sg177
g104
sg164
g104
sg193
g104
sg144
g104
sg106
g104
sg197
g104
sg108
g104
sg203
g104
ssS'd3cd55b71dd3'
p222
(dp223
g129
g104
ssS'e276e60d848d'
p224
(dp225
g140
g104
ssS'f332617ebb03'
p226
(dp227
g175
g104
sg152
g104
ssS'61fe509b8406'
p228
(dp229
g113
g104
ssS'aef5910fdda8'
p230
(dp231
g205
g104
sg140
g104
sg209
g104
sg126
g104
sg135
g104
sg213
g104
sg183
g104
sg131
g104
sg185
g104
sg187
g104
sg160
g104
ssS'1d2497b161fa'
p232
(dp233
g179
g104
sg181
g104
sssS'CVE-2019-10529'
p234
(dp235
S'a77c16d4981b'
p236
(dp237
(S'drivers/gpu/msm/kgsl.c'
p238
S'kgsl_mem_entry_destroy'
p239
tp240
S'70f432282130'
p241
sssS'CVE-2018-11818'
p242
(dp243
S'7696915bcc23'
p244
(dp245
(S'drivers/video/fbdev/msm/mdss_mdp_overlay.c'
p246
S'mdss_mdp_scaler_lut_init'
p247
tp248
S'f853c3dbe3a6'
p249
ssS'78a8a5037990'
p250
(dp251
(S'drivers/video/fbdev/msm/mdss_mdp.c'
p252
S'mdss_mdp_scaler_init'
p253
tp254
g249
s(S'drivers/video/fbdev/msm/mdss_mdp_pp.c'
p255
S'mdss_mdp_scaler_lut_cfg'
p256
tp257
g249
sg248
g249
ssS'2e1a28c65e2f'
p258
(dp259
g254
g249
sssS'CVE-2019-10607'
p260
(dp261
S'2e93e7371810'
p262
(dp263
(S'security/selinux/ss/services.c'
p264
S'security_context_to_sid_core'
p265
tp266
S'3f308e403e30'
p267
sssS'CVE-2019-2287'
p268
(dp269
S'de6abb23dc05'
p270
(dp271
(S'drivers/media/platform/msm/vidc/hfi_response_handler.c'
p272
S'hfi_fill_codec_info'
p273
tp274
S'2dc9dcdbb971'
p275
ssS'2851bf7e6847'
p276
(dp277
g274
g275
sssS'CVE-2019-2182'
p278
(dp279
S'0fc5d4170d0e'
p280
(dp281
(S'arch/arm64/mm/mmu.c'
p282
S'pmd_set_huge'
p283
tp284
S'10171d1032b7'
p285
s(g282
S'pud_set_huge'
p286
tp287
g285
ssS'a77c16d4981b'
p288
(dp289
g284
g285
sg287
g285
ssS'146de2055790'
p290
(dp291
g284
g285
sg287
g285
sssS'CVE-2019-10524'
p292
(dp293
S'9393739f2aa4'
p294
(dp295
(S'drivers/media/platform/msm/camera_v2/common/msm_camera_io_util.c'
p296
S'msm_cam_clk_enable'
p297
tp298
S'774fe2ef649e'
p299
sssS'CVE-2019-2333'
p300
(dp301
S'6c6aaf4e8330'
p302
(dp303
(S'drivers/platform/msm/ipa/ipa_v3/ipa_intf.c'
p304
S'ipa3_read'
p305
tp306
S'de6abb23dc05'
p307
s(S'drivers/platform/msm/ipa/ipa_v2/ipa_intf.c'
p308
S'ipa_read'
p309
tp310
g307
sssS'CVE-2019-2308'
p311
(dp312
S'1d1a62b98700'
p313
(dp314
(S'drivers/char/adsprpc.c'
p315
S'fastrpc_internal_invoke'
p316
tp317
S'6c6aaf4e8330'
p318
ssS'058ddcee4c12'
p319
(dp320
(g315
S'fastrpc_munmap_on_dsp_rh'
p321
tp322
g318
s(g315
S'fastrpc_mmap_on_dsp'
p323
tp324
g318
sg317
g318
s(g315
S'fastrpc_init_process'
p325
tp326
g318
s(g315
S'fastrpc_release_current_dsp_process'
p327
tp328
g318
s(g315
S'fastrpc_munmap_on_dsp'
p329
tp330
g318
ssS'0c755962c9cc'
p331
(dp332
g322
g318
ssS'd6d7f6f8d00c'
p333
(dp334
g317
g318
ssS'7dca8885b04d'
p335
(dp336
g322
g318
sssS'CVE-2019-2323'
p337
(dp338
S'de6abb23dc05'
p339
(dp340
(S'drivers/crypto/msm/ice.c'
p341
S'qcom_ice_setup_ice_hw'
p342
tp343
S'2dc9dcdbb971'
p344
s(g341
S'get_ice_device_from_storage_type'
p345
tp346
g344
sssS'CVE-2018-1000204'
p347
(dp348
S'98ae89537923'
p349
(dp350
(S'drivers/scsi/sg.c'
p351
S'sg_build_indirect'
p352
tp353
S'1770a10903e9'
p354
sssS'CVE-2019-15917'
p355
(dp356
S'e276e60d848d'
p357
(dp358
(S'drivers/bluetooth/hci_ldisc.c'
p359
S'hci_uart_set_proto'
p360
tp361
S'b0e9337da126'
p362
sssS'CVE-2018-11919'
p363
(dp364
S'4d65a7ab88b7'
p365
(dp366
(S'drivers/soc/qcom/msm_bus/msm_bus_fabric_adhoc.c'
p367
S'msm_bus_device_init'
p368
tp369
S'99c6c355bf9a'
p370
s(g367
S'msm_bus_device_probe'
p371
tp372
g370
s(S'drivers/soc/qcom/msm_bus/msm_bus_fabric_rpmh.c'
p373
S'msm_bus_device_init'
p374
tp375
g370
s(g373
S'msm_bus_device_probe'
p376
tp377
g370
sssS'CVE-2018-1000199'
p378
(dp379
S'230f5ef8edc6'
p380
(dp381
(S'kernel/events/hw_breakpoint.c'
p382
S'modify_user_hw_breakpoint'
p383
tp384
S'0dee62a0f3d9'
p385
sssS'CVE-2019-2263'
p386
(dp387
S'854975ee1bbf'
p388
(dp389
(S'drivers/char/diag/diagchar_core.c'
p390
S'check_data_ready'
p391
tp392
S'2e353d5c5e60'
p393
s(g390
S'diagchar_read'
p394
tp395
g393
ssS'e7d24e4b76b3'
p396
(dp397
g395
g393
ssS'e2e3f32ff024'
p398
(dp399
g395
g393
ssS'4ab88a87a831'
p400
(dp401
g395
g393
ssS'6c6aaf4e8330'
p402
(dp403
g395
g393
ssS'f332617ebb03'
p404
(dp405
g395
g393
sssS'CVE-2018-18397'
p406
(dp407
S'7bb76790999d'
p408
(dp409
(S'fs/userfaultfd.c'
p410
S'userfaultfd_register'
p411
tp412
S'1fb9158725c8'
p413
s(g410
S'userfaultfd_unregister'
p414
tp415
g413
ssS'19a8101c2309'
p416
(dp417
g412
g413
sg415
g413
s(S'mm/userfaultfd.c'
p418
S'__mcopy_atomic'
p419
tp420
g413
sssS'CVE-2017-18595'
p421
(dp422
S'b82affb897d2'
p423
(dp424
(S'kernel/trace/trace.c'
p425
S'allocate_trace_buffer'
p426
tp427
S'db0174343570'
p428
sssS'CVE-2018-11266'
p429
(dp430
S'6c6aaf4e8330'
p431
(dp432
(S'drivers/char/diag/diag_dci.c'
p433
S'dci_lookup_client_entry_pid'
p434
tp435
S'c90e406dd9d5'
p436
ssS'01e81c03e7be'
p437
(dp438
g435
g436
ssS'f332617ebb03'
p439
(dp440
g435
g436
sssS'CVE-2019-2345'
p441
(dp442
S'6acb6f98163d'
p443
(dp444
(S'drivers/media/platform/msm/camera_v2/jpeg_dma/msm_jpeg_dma_dev.c'
p445
S'msm_jpegdma_streamoff'
p446
tp447
S'8800b956efa8'
p448
s(g445
S'msm_jpegdma_reqbufs'
p449
tp450
g448
sssS'CVE-2018-13096'
p451
(dp452
S'61fe509b8406'
p453
(dp454
(S'fs/f2fs/inode.c'
p455
S'sanity_check_inode'
p456
tp457
S'ad6d811a2827'
p458
ssS'7bb76790999d'
p459
(dp460
(g455
S'do_read_inode'
p461
tp462
g458
sg457
g458
ssS'f332617ebb03'
p463
(dp464
g462
g458
sg457
g458
ssS'c36d54c34fef'
p465
(dp466
g462
g458
ssS'de6abb23dc05'
p467
(dp468
g462
g458
sg457
g458
sssS'CVE-2019-10538'
p469
(dp470
S'0c755962c9cc'
p471
(dp472
(S'drivers/soc/qcom/icnss.c'
p473
S'wlfw_msa_mem_info_send_sync_msg'
p474
tp475
S'70f432282130'
p476
ssS'a77c16d4981b'
p477
(dp478
g475
g476
sssS'CVE-2019-2330'
p479
(dp480
S'19a8101c2309'
p481
(dp482
(S'drivers/staging/android/ion/ion_system_heap.c'
p483
S'alloc_from_pool_preferred'
p484
tp485
S'1fb9158725c8'
p486
sssS'CVE-2019-9455'
p487
(dp488
sS'CVE-2019-15220'
p489
(dp490
sS'CVE-2019-2260'
p491
(dp492
S'c36d54c34fef'
p493
(dp494
(S'kernel/events/core.c'
p495
S'__perf_event_release_kernel'
p496
tp497
S'ad6d811a2827'
p498
s(g495
S'perf_event_exit_cpu'
p499
tp500
g498
ssS'f332617ebb03'
p501
(dp502
(g495
S'perf_event_zombie_cleanup'
p503
tp504
g498
s(g495
S'perf_event_release_kernel'
p505
tp506
g498
s(g495
S'perf_event_start_swevents'
p507
tp508
g498
sg497
g498
sg500
g498
sssS'CVE-2019-2283'
p509
(dp510
S'70f432282130'
p511
(dp512
(S'drivers/soc/qcom/glink_smem_native_xprt.c'
p513
S'fifo_read'
p514
tp515
S'a284d4c9bbea'
p516
s(g513
S'fifo_write_body'
p517
tp518
g516
ssS'2dc9dcdbb971'
p519
(dp520
g515
g516
sg518
g516
ssS'c36d54c34fef'
p521
(dp522
g515
g516
sg518
g516
sssS'CVE-2018-11983'
p523
(dp524
S'c9ebd8b20d52'
p525
(dp526
(S'drivers/char/diag/diagfwd_cntl.c'
p527
S'process_ssid_range_report'
p528
tp529
S'7c0a471aa20a'
p530
s(S'drivers/char/diag/diag_masks.c'
p531
S'diag_cmd_set_log_mask'
p532
tp533
g530
s(g531
S'diag_cmd_set_all_msg_mask'
p534
tp535
g530
s(g527
S'process_last_event_report'
p536
tp537
g530
s(g527
S'diag_build_time_mask_update'
p538
tp539
g530
s(g531
S'diag_cmd_disable_log_mask'
p540
tp541
g530
ssS'57d3486c6e7a'
p542
(dp543
g535
g530
ssS'a77c16d4981b'
p544
(dp545
g533
g530
sg535
g530
ssS'38a1d53987e4'
p546
(dp547
g529
g530
sg539
g530
sssS'CVE-2018-11986'
p548
(dp549
S'85a4a4c4437e'
p550
(dp551
(S'drivers/media/platform/msm/camera_v2/pproc/cpp/msm_cpp.c'
p552
S'SWAP_IDENTITY_FOR_BATCH_ON_PREVIEW'
p553
tp554
S'f07a15734ce7'
p555
s(g552
S'msm_cpp_empty_list'
p556
tp557
g555
s(g552
S'msm_cpp_irq'
p558
tp559
g555
sssS'CVE-2018-11987'
p560
(dp561
S'b50d2bd7c7df'
p562
(dp563
(S'drivers/staging/android/ion/ion_system_heap.c'
p564
S'ion_system_heap_destroy_pools'
p565
tp566
S'f5bee8dc8d4a'
p567
sssS'CVE-2018-11984'
p568
(dp569
S'57d3486c6e7a'
p570
(dp571
(S'drivers/char/diag/diag_masks.c'
p572
S'diag_send_msg_mask_update'
p573
tp574
S'd21da4213c13'
p575
ssS'38a1d53987e4'
p576
(dp577
(g572
S'diag_send_log_mask_update'
p578
tp579
g575
sg574
g575
ssS'f1ef67c39eac'
p580
(dp581
g579
g575
sg574
g575
s(g572
S'diag_send_event_mask_update'
p582
tp583
g575
sssS'CVE-2019-2284'
p584
(dp585
S'1d7b97667c43'
p586
(dp587
(S'drivers/media/platform/msm/camera/cam_req_mgr/cam_req_mgr_core.c'
p588
S'cam_req_mgr_link'
p589
tp590
S'476904464103'
p591
sssS'CVE-2019-9457'
p592
(dp593
S'1388873ab814'
p594
(dp595
(S'fs/exec.c'
p596
S'get_arg_page'
p597
tp598
S'c98c3c6bc997'
p599
sssS'CVE-2019-9456'
p600
(dp601
S'78667dedc643'
p602
(dp603
(S'drivers/usb/mon/mon_text.c'
p604
S'mon_text_read_u'
p605
tp606
S'c287f849c93a'
p607
s(g604
S'mon_text_copy_to_user'
p608
tp609
g607
s(g604
S'mon_text_read_t'
p610
tp611
g607
sssS'CVE-2018-3564'
p612
(dp613
S'b85fce5ba048'
p614
(dp615
(S'drivers/char/adsprpc.c'
p616
S'fastrpc_file_free'
p617
tp618
S'9856d84237c1'
p619
ssS'1b473b19279a'
p620
(dp621
g618
g619
ssS'aa022618939c'
p622
(dp623
g618
g619
s(g616
S'fastrpc_device_release'
p624
tp625
g619
sssS'CVE-2019-9454'
p626
(dp627
sS'CVE-2019-10515'
p628
(dp629
S'6c6aaf4e8330'
p630
(dp631
(S'drivers/char/diag/diag_dci.c'
p632
S'dci_lookup_client_entry_pid'
p633
tp634
S'ad6d811a2827'
p635
s(S'drivers/char/diag/diagchar_core.c'
p636
S'diagchar_read'
p637
tp638
g635
ssS'f332617ebb03'
p639
(dp640
g634
g635
sg638
g635
s(g636
S'diagchar_close'
p641
tp642
g635
sssS'CVE-2019-10530'
p643
(dp644
S'de6abb23dc05'
p645
(dp646
(S'drivers/iommu/dma-mapping-fast.c'
p647
S'fast_smmu_alloc'
p648
tp649
S'2dc9dcdbb971'
p650
sssS'CVE-2019-10555'
p651
(dp652
S'61fe509b8406'
p653
(dp654
(S'drivers/video/fbdev/msm/mdss_dsi.c'
p655
S'mdss_dsi_cmd_flush'
p656
tp657
S'33ef3ba97d39'
p658
sssS'CVE-2018-19824'
p659
(dp660
S'c36d54c34fef'
p661
(dp662
(S'sound/usb/card.c'
p663
S'usb_audio_probe'
p664
tp665
S'a284d4c9bbea'
p666
sssS'CVE-2018-20169'
p667
(dp668
S'c36d54c34fef'
p669
(dp670
(S'drivers/usb/core/usb.c'
p671
S'__usb_get_extra_descriptor'
p672
tp673
S'a284d4c9bbea'
p674
s(S'drivers/usb/core/hub.c'
p675
S'usb_enumerate_device_otg'
p676
tp677
g674
s(S'drivers/usb/host/hwa-hc.c'
p678
S'hwahc_security_create'
p679
tp680
g674
sssS'CVE-2018-11823'
p681
(dp682
S'070aae3337ac'
p683
(dp684
(S'drivers/cpuidle/lpm-levels-of.c'
p685
S'parse_cpu_levels'
p686
tp687
S'5292b59169c0'
p688
s(g685
S'free_cluster_node'
p689
tp690
g688
s(g685
S'parse_cluster'
p691
tp692
g688
ssS'718855ec578d'
p693
(dp694
g692
g688
sssS'CVE-2019-2279'
p695
(dp696
S'774fe2ef649e'
p697
(dp698
(S'drivers/media/platform/msm/vidc/venus_hfi.c'
p699
S'__write_queue'
p700
tp701
S'1d7b97667c43'
p702
s(g699
S'__read_queue'
p703
tp704
g702
sssS'CVE-2019-10571'
p705
(dp706
S'2851bf7e6847'
p707
(dp708
(S'drivers/gpu/msm/adreno_snapshot.c'
p709
S'kgsl_snapshot_push_object'
p710
tp711
S'a42d482efe49'
p712
sssS'CVE-2017-16939'
p713
(dp714
S'f79dd42b805d'
p715
(dp716
(S'net/xfrm/xfrm_user.c'
p717
S'xfrm_user_rcv_msg'
p718
tp719
S'3c958170b5d3'
p720
s(g717
S'xfrm_dump_policy'
p721
tp722
g720
s(g717
S'xfrm_dump_policy_start'
p723
tp724
g720
s(g717
S'xfrm_dump_policy_done'
p725
tp726
g720
ssS'7bb76790999d'
p727
(dp728
g719
g720
sssS'CVE-2018-11988'
p729
(dp730
S'7bb76790999d'
p731
(dp732
(S'drivers/misc/qseecom.c'
p733
S'qseecom_remove'
p734
tp735
S'f81979164388'
p736
ssS'9929f59dd21f'
p737
(dp738
g735
g736
ssS'fc401b6a91af'
p739
(dp740
g735
g736
ssS'de6abb23dc05'
p741
(dp742
g735
g736
sssS'CVE-2018-13893'
p743
(dp744
S'7dca8885b04d'
p745
(dp746
(S'drivers/char/diag/diag_masks.c'
p747
S'diag_cmd_set_msg_mask'
p748
tp749
S'c2cff6971db3'
p750
ssS'57d3486c6e7a'
p751
(dp752
(S'drivers/char/diag/diagchar_core.c'
p753
S'diag_md_session_exit'
p754
tp755
g750
s(g747
S'diag_cmd_get_msg_mask'
p756
tp757
g750
s(g747
S'diag_event_mask_copy'
p758
tp759
g750
s(g753
S'diag_md_session_create'
p760
tp761
g750
s(g747
S'diag_build_time_mask_init'
p762
tp763
g750
s(g753
S'diag_md_session_close'
p764
tp765
g750
s(g747
S'diag_msg_mask_copy'
p766
tp767
g750
s(g747
S'diag_cmd_get_ssid_range'
p768
tp769
g750
s(g747
S'diag_send_msg_mask_update'
p770
tp771
g750
s(g747
S'diag_log_mask_init'
p772
tp773
g750
s(g747
S'__diag_mask_init'
p774
tp775
g750
s(g747
S'diag_event_mask_init'
p776
tp777
g750
s(g747
S'diag_log_mask_copy'
p778
tp779
g750
s(g747
S'diag_cmd_set_all_msg_mask'
p780
tp781
g750
s(g747
S'diag_msg_mask_free'
p782
tp783
g750
s(g747
S'diag_msg_mask_init'
p784
tp785
g750
s(g747
S'diag_copy_to_user_msg_mask'
p786
tp787
g750
sg749
g750
ssS'a77c16d4981b'
p788
(dp789
g749
g750
sg757
g750
sg781
g750
ssS'c36d54c34fef'
p790
(dp791
g775
g750
ssS'9393739f2aa4'
p792
(dp793
g757
g750
sssS'CVE-2019-10565'
p794
(dp795
S'a5bdc9ebe5cf'
p796
(dp797
(S'drivers/media/platform/msm/camera/cam_sensor_module/cam_sensor/cam_sensor_core.c'
p798
S'cam_sensor_shutdown'
p799
tp800
S'24397e3354b5'
p801
s(g798
S'cam_sensor_driver_cmd'
p802
tp803
g801
ssS'e8e82015f51d'
p804
(dp805
g803
g801
s(S'drivers/media/platform/msm/camera/cam_sensor_module/cam_sensor_utils/cam_sensor_util.c'
p806
S'cam_sensor_core_power_up'
p807
tp808
g801
s(g806
S'msm_camera_power_down'
p809
tp810
g801
sg800
g801
s(g806
S'cam_sensor_update_power_settings'
p811
tp812
g801
s(g806
S'cam_config_mclk_reg'
p813
tp814
g801
ssS'f332617ebb03'
p815
(dp816
g803
g801
ssS'1d7b97667c43'
p817
(dp818
g812
g801
ssS'ea0cb145f495'
p819
(dp820
g803
g801
ssS'8eedcc7ff9de'
p821
(dp822
g803
g801
sg808
g801
sg810
g801
sg800
g801
sg812
g801
sg814
g801
sssS'CVE-2019-2314'
p823
(dp824
S'1d1a62b98700'
p825
(dp826
(S'drivers/gpu/drm/msm/dp/dp_debug.c'
p827
S'dp_debug_write_dpcd'
p828
tp829
S'1fb9158725c8'
p830
ssS'70f432282130'
p831
(dp832
(g827
S'dp_debug_write_edid'
p833
tp834
g830
ssS'19a8101c2309'
p835
(dp836
g834
g830
s(g827
S'dp_debug_get'
p837
tp838
g830
s(g827
S'dp_debug_write_sim'
p839
tp840
g830
sg829
g830
s(g827
S'dp_debug_put'
p841
tp842
g830
sss.